target datalayout = "e-m:e-p270:32:32-p271:32:32-p272:64:64-i64:64-i128:128-f80:128-n8:16:32:64-S128"
target triple = "x86_64-unknown-linux-gnu"

%"class.zmq::zmtp_engine_t" = type <{ %"class.zmq::stream_engine_base_t.base", [7 x i8], %"class.zmq::msg_t", %"class.zmq::msg_t", i64, [64 x i8], [64 x i8], i32, i8, [3 x i8], i32, [4 x i8] }>
%"class.zmq::stream_engine_base_t.base" = type <{ %"class.zmq::io_object_t", %"struct.zmq::i_engine", %"struct.zmq::options_t", ptr, i64, ptr, ptr, i64, ptr, ptr, { i64, i64 }, { i64, i64 }, ptr, i8, i8, [6 x i8], %"struct.zmq::endpoint_uri_pair_t", i8, i8, i8, i8, [4 x i8], %"class.std::__cxx11::basic_string", i32, [4 x i8], ptr, i8, i8, [6 x i8], %"class.zmq::msg_t", i8, [7 x i8], ptr, ptr, i8 }>
%"class.zmq::io_object_t" = type { %"struct.zmq::i_poll_events", ptr }
%"struct.zmq::i_poll_events" = type { ptr }
%"struct.zmq::i_engine" = type { ptr }
%"struct.zmq::options_t" = type { i32, i32, i64, i8, [256 x i8], i32, i32, i32, i32, i32, i32, i32, i32, i8, %"struct.zmq::atomic_value_t", i32, i32, i32, i32, i32, i32, i64, i32, i32, i8, i32, i8, i8, i8, i8, i8, %"class.std::__cxx11::basic_string", %"class.std::__cxx11::basic_string", %"class.std::__cxx11::basic_string", i32, i32, i32, i32, %"class.std::vector", %"class.std::set", %"class.std::set", %"class.std::set.6", i32, i32, %"class.std::__cxx11::basic_string", %"class.std::__cxx11::basic_string", %"class.std::__cxx11::basic_string", [32 x i8], [32 x i8], [32 x i8], %"class.std::__cxx11::basic_string", %"class.std::__cxx11::basic_string", i32, i32, i8, i32, i8, i32, i8, i16, i32, i32, i32, %"class.std::__cxx11::basic_string", i8, i8, i8, i32, i32, i8, i32, %"class.std::map", i32, %"class.std::__cxx11::basic_string", %"class.std::__cxx11::basic_string", %"class.std::__cxx11::basic_string", %"class.std::__cxx11::basic_string", i8, %"class.std::vector.21", i8, %"class.std::vector.21", i8, %"class.std::vector.21", i8, i32, i8, i32, i32, i32, i32, i32, i8, i32 }
%"struct.zmq::atomic_value_t" = type { %"struct.std::atomic" }
%"struct.std::atomic" = type { %"struct.std::__atomic_base" }
%"struct.std::__atomic_base" = type { i32 }
%"class.std::vector" = type { %"struct.std::_Vector_base" }
%"struct.std::_Vector_base" = type { %"struct.std::_Vector_base<zmq::tcp_address_mask_t, std::allocator<zmq::tcp_address_mask_t>>::_Vector_impl" }
%"struct.std::_Vector_base<zmq::tcp_address_mask_t, std::allocator<zmq::tcp_address_mask_t>>::_Vector_impl" = type { %"struct.std::_Vector_base<zmq::tcp_address_mask_t, std::allocator<zmq::tcp_address_mask_t>>::_Vector_impl_data" }
%"struct.std::_Vector_base<zmq::tcp_address_mask_t, std::allocator<zmq::tcp_address_mask_t>>::_Vector_impl_data" = type { ptr, ptr, ptr }
%"class.std::set" = type { %"class.std::_Rb_tree" }
%"class.std::_Rb_tree" = type { %"struct.std::_Rb_tree<unsigned int, unsigned int, std::_Identity<unsigned int>, std::less<unsigned int>>::_Rb_tree_impl" }
%"struct.std::_Rb_tree<unsigned int, unsigned int, std::_Identity<unsigned int>, std::less<unsigned int>>::_Rb_tree_impl" = type { %"struct.std::_Rb_tree_key_compare", %"struct.std::_Rb_tree_header" }
%"struct.std::_Rb_tree_key_compare" = type { %"struct.std::less" }
%"struct.std::less" = type { i8 }
%"struct.std::_Rb_tree_header" = type { %"struct.std::_Rb_tree_node_base", i64 }
%"struct.std::_Rb_tree_node_base" = type { i32, ptr, ptr, ptr }
%"class.std::set.6" = type { %"class.std::_Rb_tree.7" }
%"class.std::_Rb_tree.7" = type { %"struct.std::_Rb_tree<int, int, std::_Identity<int>, std::less<int>>::_Rb_tree_impl" }
%"struct.std::_Rb_tree<int, int, std::_Identity<int>, std::less<int>>::_Rb_tree_impl" = type { %"struct.std::_Rb_tree_key_compare.11", %"struct.std::_Rb_tree_header" }
%"struct.std::_Rb_tree_key_compare.11" = type { %"struct.std::less.12" }
%"struct.std::less.12" = type { i8 }
%"class.std::map" = type { %"class.std::_Rb_tree.14" }
%"class.std::_Rb_tree.14" = type { %"struct.std::_Rb_tree<std::__cxx11::basic_string<char>, std::pair<const std::__cxx11::basic_string<char>, std::__cxx11::basic_string<char>>, std::_Select1st<std::pair<const std::__cxx11::basic_string<char>, std::__cxx11::basic_string<char>>>, std::less<std::__cxx11::basic_string<char>>>::_Rb_tree_impl" }
%"struct.std::_Rb_tree<std::__cxx11::basic_string<char>, std::pair<const std::__cxx11::basic_string<char>, std::__cxx11::basic_string<char>>, std::_Select1st<std::pair<const std::__cxx11::basic_string<char>, std::__cxx11::basic_string<char>>>, std::less<std::__cxx11::basic_string<char>>>::_Rb_tree_impl" = type { %"struct.std::_Rb_tree_key_compare.18", %"struct.std::_Rb_tree_header" }
%"struct.std::_Rb_tree_key_compare.18" = type { %"struct.std::less.19" }
%"struct.std::less.19" = type { i8 }
%"class.std::vector.21" = type { %"struct.std::_Vector_base.22" }
%"struct.std::_Vector_base.22" = type { %"struct.std::_Vector_base<unsigned char, std::allocator<unsigned char>>::_Vector_impl" }
%"struct.std::_Vector_base<unsigned char, std::allocator<unsigned char>>::_Vector_impl" = type { %"struct.std::_Vector_base<unsigned char, std::allocator<unsigned char>>::_Vector_impl_data" }
%"struct.std::_Vector_base<unsigned char, std::allocator<unsigned char>>::_Vector_impl_data" = type { ptr, ptr, ptr }
%"struct.zmq::endpoint_uri_pair_t" = type <{ %"class.std::__cxx11::basic_string", %"class.std::__cxx11::basic_string", i32, [4 x i8] }>
%"class.std::__cxx11::basic_string" = type { %"struct.std::__cxx11::basic_string<char>::_Alloc_hider", i64, %union.anon }
%"struct.std::__cxx11::basic_string<char>::_Alloc_hider" = type { ptr }
%union.anon = type { i64, [8 x i8] }
%"class.zmq::msg_t" = type { %union.anon.26 }
%union.anon.26 = type { %struct.anon }
%struct.anon = type { ptr, [34 x i8], i8, i8, i32, %"union.zmq::msg_t::group_t" }
%"union.zmq::msg_t::group_t" = type { %struct.anon.28 }
%struct.anon.28 = type { i8, ptr }
%"class.zmq::stream_engine_base_t" = type <{ %"class.zmq::io_object_t", %"struct.zmq::i_engine", %"struct.zmq::options_t", ptr, i64, ptr, ptr, i64, ptr, ptr, { i64, i64 }, { i64, i64 }, ptr, i8, i8, [6 x i8], %"struct.zmq::endpoint_uri_pair_t", i8, i8, i8, i8, [4 x i8], %"class.std::__cxx11::basic_string", i32, [4 x i8], ptr, i8, i8, [6 x i8], %"class.zmq::msg_t", i8, [7 x i8], ptr, ptr, i8, [7 x i8] }>

; Function Attrs: mustprogress uwtable
define linkonce_odr void @_ZN3zmq20stream_engine_base_t11set_polloutEv(ptr noundef nonnull align 8 dereferenceable(1689) %this) #0 comdat align 2 {
entry:
  %this.addr = alloca ptr, align 8
  store ptr %this, ptr %this.addr, align 8
  %this1 = load ptr, ptr %this.addr, align 8
  %_handle = getelementptr inbounds %"class.zmq::stream_engine_base_t", ptr %this1, i32 0, i32 25
  %0 = load ptr, ptr %_handle, align 8
  call void @_ZN3zmq11io_object_t11set_polloutEPv(ptr noundef nonnull align 8 dereferenceable(16) %this1, ptr noundef %0)
  ret void
}

; Function Attrs: mustprogress uwtable
define linkonce_odr void @_ZN3zmq20stream_engine_base_t10set_pollinEv(ptr noundef nonnull align 8 dereferenceable(1689) %this) #0 comdat align 2 {
entry:
  %this.addr = alloca ptr, align 8
  store ptr %this, ptr %this.addr, align 8
  %this1 = load ptr, ptr %this.addr, align 8
  %_handle = getelementptr inbounds %"class.zmq::stream_engine_base_t", ptr %this1, i32 0, i32 25
  %0 = load ptr, ptr %_handle, align 8
  call void @_ZN3zmq11io_object_t10set_pollinEPv(ptr noundef nonnull align 8 dereferenceable(16) %this1, ptr noundef %0)
  ret void
}

; Function Attrs: mustprogress nounwind uwtable
define linkonce_odr void @_ZN3zmq10put_uint64EPhm(ptr noundef %buffer_, i64 noundef %value_) #4 comdat {
entry:
  %buffer_.addr = alloca ptr, align 8
  %value_.addr = alloca i64, align 8
  store ptr %buffer_, ptr %buffer_.addr, align 8
  store i64 %value_, ptr %value_.addr, align 8
  %0 = load i64, ptr %value_.addr, align 8
  %shr = lshr i64 %0, 56
  %and = and i64 %shr, 255
  %conv = trunc i64 %and to i8
  %1 = load ptr, ptr %buffer_.addr, align 8
  %arrayidx = getelementptr inbounds i8, ptr %1, i64 0
  store i8 %conv, ptr %arrayidx, align 1
  %2 = load i64, ptr %value_.addr, align 8
  %shr1 = lshr i64 %2, 48
  %and2 = and i64 %shr1, 255
  %conv3 = trunc i64 %and2 to i8
  %3 = load ptr, ptr %buffer_.addr, align 8
  %arrayidx4 = getelementptr inbounds i8, ptr %3, i64 1
  store i8 %conv3, ptr %arrayidx4, align 1
  %4 = load i64, ptr %value_.addr, align 8
  %shr5 = lshr i64 %4, 40
  %and6 = and i64 %shr5, 255
  %conv7 = trunc i64 %and6 to i8
  %5 = load ptr, ptr %buffer_.addr, align 8
  %arrayidx8 = getelementptr inbounds i8, ptr %5, i64 2
  store i8 %conv7, ptr %arrayidx8, align 1
  %6 = load i64, ptr %value_.addr, align 8
  %shr9 = lshr i64 %6, 32
  %and10 = and i64 %shr9, 255
  %conv11 = trunc i64 %and10 to i8
  %7 = load ptr, ptr %buffer_.addr, align 8
  %arrayidx12 = getelementptr inbounds i8, ptr %7, i64 3
  store i8 %conv11, ptr %arrayidx12, align 1
  %8 = load i64, ptr %value_.addr, align 8
  %shr13 = lshr i64 %8, 24
  %and14 = and i64 %shr13, 255
  %conv15 = trunc i64 %and14 to i8
  %9 = load ptr, ptr %buffer_.addr, align 8
  %arrayidx16 = getelementptr inbounds i8, ptr %9, i64 4
  store i8 %conv15, ptr %arrayidx16, align 1
  %10 = load i64, ptr %value_.addr, align 8
  %shr17 = lshr i64 %10, 16
  %and18 = and i64 %shr17, 255
  %conv19 = trunc i64 %and18 to i8
  %11 = load ptr, ptr %buffer_.addr, align 8
  %arrayidx20 = getelementptr inbounds i8, ptr %11, i64 5
  store i8 %conv19, ptr %arrayidx20, align 1
  %12 = load i64, ptr %value_.addr, align 8
  %shr21 = lshr i64 %12, 8
  %and22 = and i64 %shr21, 255
  %conv23 = trunc i64 %and22 to i8
  %13 = load ptr, ptr %buffer_.addr, align 8
  %arrayidx24 = getelementptr inbounds i8, ptr %13, i64 6
  store i8 %conv23, ptr %arrayidx24, align 1
  %14 = load i64, ptr %value_.addr, align 8
  %and25 = and i64 %14, 255
  %conv26 = trunc i64 %and25 to i8
  %15 = load ptr, ptr %buffer_.addr, align 8
  %arrayidx27 = getelementptr inbounds i8, ptr %15, i64 7
  store i8 %conv26, ptr %arrayidx27, align 1
  ret void
}

; Function Attrs: mustprogress uwtable
define void @_ZN3zmq13zmtp_engine_t13plug_internalEv(ptr noundef nonnull align 8 dereferenceable(1976) %this) unnamed_addr #0 align 2 {
entry:
  %this.addr = alloca ptr, align 8
  store ptr %this, ptr %this.addr, align 8
  %this1 = load ptr, ptr %this.addr, align 8
  call void @_ZN3zmq20stream_engine_base_t19set_handshake_timerEv(ptr noundef nonnull align 8 dereferenceable(1689) %this1)
  %_greeting_send = getelementptr inbounds %"class.zmq::zmtp_engine_t", ptr %this1, i32 0, i32 6
  %arraydecay = getelementptr inbounds [64 x i8], ptr %_greeting_send, i64 0, i64 0
  %_outpos = getelementptr inbounds %"class.zmq::stream_engine_base_t", ptr %this1, i32 0, i32 6
  store ptr %arraydecay, ptr %_outpos, align 8
  %_outpos2 = getelementptr inbounds %"class.zmq::stream_engine_base_t", ptr %this1, i32 0, i32 6
  %0 = load ptr, ptr %_outpos2, align 8
  %_outsize = getelementptr inbounds %"class.zmq::stream_engine_base_t", ptr %this1, i32 0, i32 7
  %1 = load i64, ptr %_outsize, align 8
  %inc = add i64 %1, 1
  store i64 %inc, ptr %_outsize, align 8
  %arrayidx = getelementptr inbounds i8, ptr %0, i64 %1
  store i8 -1, ptr %arrayidx, align 1
  %_outpos3 = getelementptr inbounds %"class.zmq::stream_engine_base_t", ptr %this1, i32 0, i32 6
  %2 = load ptr, ptr %_outpos3, align 8
  %_outsize4 = getelementptr inbounds %"class.zmq::stream_engine_base_t", ptr %this1, i32 0, i32 7
  %3 = load i64, ptr %_outsize4, align 8
  %arrayidx5 = getelementptr inbounds i8, ptr %2, i64 %3
  %_options = getelementptr inbounds %"class.zmq::stream_engine_base_t", ptr %this1, i32 0, i32 2
  %routing_id_size = getelementptr inbounds %"struct.zmq::options_t", ptr %_options, i32 0, i32 3
  %4 = load i8, ptr %routing_id_size, align 8
  %conv = zext i8 %4 to i32
  %add = add nsw i32 %conv, 1
  %conv6 = sext i32 %add to i64
  call void @_ZN3zmq10put_uint64EPhm(ptr noundef %arrayidx5, i64 noundef %conv6)
  %_outsize7 = getelementptr inbounds %"class.zmq::stream_engine_base_t", ptr %this1, i32 0, i32 7
  %5 = load i64, ptr %_outsize7, align 8
  %add8 = add i64 %5, 8
  store i64 %add8, ptr %_outsize7, align 8
  %_outpos9 = getelementptr inbounds %"class.zmq::stream_engine_base_t", ptr %this1, i32 0, i32 6
  %6 = load ptr, ptr %_outpos9, align 8
  %_outsize10 = getelementptr inbounds %"class.zmq::stream_engine_base_t", ptr %this1, i32 0, i32 7
  %7 = load i64, ptr %_outsize10, align 8
  %inc11 = add i64 %7, 1
  store i64 %inc11, ptr %_outsize10, align 8
  %arrayidx12 = getelementptr inbounds i8, ptr %6, i64 %7
  store i8 127, ptr %arrayidx12, align 1
  call void @_ZN3zmq20stream_engine_base_t10set_pollinEv(ptr noundef nonnull align 8 dereferenceable(1689) %this1)
  call void @_ZN3zmq20stream_engine_base_t11set_polloutEv(ptr noundef nonnull align 8 dereferenceable(1689) %this1)
  call void @_ZN3zmq20stream_engine_base_t8in_eventEv(ptr noundef nonnull align 8 dereferenceable(1689) %this1)
  ret void
}