; Function Attrs: mustprogress uwtable
define void @_ZN3zmq13zmtp_engine_t13plug_internalEv(ptr noundef nonnull align 8 dereferenceable(1976) %this) unnamed_addr #0 align 2 {
entry:
  tail call void @_ZN3zmq20stream_engine_base_t19set_handshake_timerEv(ptr noundef nonnull align 8 dereferenceable(1689) %this)
  %_greeting_send = getelementptr inbounds i8, ptr %this, i64 1896
  %_outpos = getelementptr inbounds i8, ptr %this, i64 1384
  store ptr %_greeting_send, ptr %_outpos, align 8
  %_outsize = getelementptr inbounds i8, ptr %this, i64 1392
  %0 = load i64, ptr %_outsize, align 8
  %inc = add i64 %0, 1
  store i64 %inc, ptr %_outsize, align 8
  %arrayidx = getelementptr inbounds i8, ptr %_greeting_send, i64 %0
  store i8 -1, ptr %arrayidx, align 1
  %1 = load ptr, ptr %_outpos, align 8
  %2 = load i64, ptr %_outsize, align 8
  %arrayidx5 = getelementptr inbounds i8, ptr %1, i64 %2
  %routing_id_size = getelementptr inbounds i8, ptr %this, i64 40
  %3 = load i8, ptr %routing_id_size, align 8
  %conv = zext i8 %3 to i64
  %add = add nuw nsw i64 %conv, 1
  %shr21.i = lshr i64 %add, 8
  %conv23.i = trunc i64 %shr21.i to i8
  %arrayidx24.i = getelementptr inbounds i8, ptr %arrayidx5, i64 6
  tail call void @llvm.memset.p0.i64(ptr noundef nonnull align 1 dereferenceable(6) %arrayidx5, i8 0, i64 6, i1 false)
  store i8 %conv23.i, ptr %arrayidx24.i, align 1
  %conv26.i = trunc i64 %add to i8
  %arrayidx27.i = getelementptr inbounds i8, ptr %arrayidx5, i64 7
  store i8 %conv26.i, ptr %arrayidx27.i, align 1
  %4 = load i64, ptr %_outsize, align 8
  %5 = load ptr, ptr %_outpos, align 8
  %inc11 = add i64 %4, 9
  store i64 %inc11, ptr %_outsize, align 8
  %6 = getelementptr i8, ptr %5, i64 %4
  %arrayidx12 = getelementptr i8, ptr %6, i64 8
  store i8 127, ptr %arrayidx12, align 1
  %_handle.i = getelementptr inbounds i8, ptr %this, i64 1584
  %7 = load ptr, ptr %_handle.i, align 8
  tail call void @_ZN3zmq11io_object_t10set_pollinEPv(ptr noundef nonnull align 8 dereferenceable(16) %this, ptr noundef %7)
  %8 = load ptr, ptr %_handle.i, align 8
  tail call void @_ZN3zmq11io_object_t11set_polloutEPv(ptr noundef nonnull align 8 dereferenceable(16) %this, ptr noundef %8)
  tail call void @_ZN3zmq20stream_engine_base_t8in_eventEv(ptr noundef nonnull align 8 dereferenceable(1689) %this)
  ret void
}